target datalayout = "e-m:e-p270:32:32-p271:32:32-p272:64:64-i64:64-i128:128-f80:128-n8:16:32:64-S128"
target triple = "x86_64-pc-linux-gnu"

%struct.SUNProfiler_ = type { i32, ptr, ptr, ptr, double }
%struct._sunTimerStruct = type { ptr, ptr, double, double, double, i64 }

; Function Attrs: nounwind uwtable
define i32 @SUNProfiler_GetElapsedTime(ptr noundef %0, ptr noundef %1, ptr noundef %2) #0 {
  %4 = alloca i32, align 4
  %5 = alloca ptr, align 8
  %6 = alloca ptr, align 8
  %7 = alloca ptr, align 8
  %8 = alloca ptr, align 8
  %9 = alloca i32, align 4
  store ptr %0, ptr %5, align 8, !tbaa !12
  store ptr %1, ptr %6, align 8, !tbaa !7
  store ptr %2, ptr %7, align 8, !tbaa !38
  call void @llvm.lifetime.start.p0(i64 8, ptr %8) #8
  %10 = load ptr, ptr %5, align 8, !tbaa !12
  %11 = icmp ne ptr %10, null
  br i1 %11, label %13, label %12

12:                                               ; preds = %3
  store i32 -9999, ptr %4, align 4
  store i32 1, ptr %9, align 4
  br label %26

13:                                               ; preds = %3
  %14 = load ptr, ptr %5, align 8, !tbaa !12
  %15 = getelementptr inbounds nuw %struct.SUNProfiler_, ptr %14, i32 0, i32 2
  %16 = load ptr, ptr %15, align 8, !tbaa !37
  %17 = load ptr, ptr %6, align 8, !tbaa !7
  %18 = call i32 @SUNHashMap_GetValue(ptr noundef %16, ptr noundef %17, ptr noundef %8)
  %19 = icmp ne i32 %18, 0
  br i1 %19, label %20, label %21

20:                                               ; preds = %13
  store i32 -1, ptr %4, align 4
  store i32 1, ptr %9, align 4
  br label %26

21:                                               ; preds = %13
  %22 = load ptr, ptr %8, align 8, !tbaa !22
  %23 = getelementptr inbounds nuw %struct._sunTimerStruct, ptr %22, i32 0, i32 4
  %24 = load double, ptr %23, align 8, !tbaa !31
  %25 = load ptr, ptr %7, align 8, !tbaa !38
  store double %24, ptr %25, align 8, !tbaa !40
  store i32 0, ptr %4, align 4
  store i32 1, ptr %9, align 4
  br label %26

26:                                               ; preds = %21, %20, %12
  call void @llvm.lifetime.end.p0(i64 8, ptr %8) #8
  %27 = load i32, ptr %4, align 4
  ret i32 %27
}