; Function Attrs: nounwind uwtable
define range(i32 -9999, 1) i32 @SUNProfiler_GetElapsedTime(ptr noundef readonly captures(address_is_null) %0, ptr noundef %1, ptr noundef writeonly captures(none) %2) local_unnamed_addr #0 {
  %4 = alloca ptr, align 8
  call void @llvm.lifetime.start.p0(i64 8, ptr nonnull %4) #18
  %.not = icmp eq ptr %0, null
  br i1 %.not, label %13, label %5

5:                                                ; preds = %3
  %6 = getelementptr inbounds nuw i8, ptr %0, i64 16
  %7 = load ptr, ptr %6, align 8, !tbaa !30
  %8 = call i32 @SUNHashMap_GetValue(ptr noundef %7, ptr noundef %1, ptr noundef nonnull %4) #18
  %.not5 = icmp eq i32 %8, 0
  br i1 %.not5, label %9, label %13

9:                                                ; preds = %5
  %10 = load ptr, ptr %4, align 8, !tbaa !29
  %11 = getelementptr inbounds nuw i8, ptr %10, i64 32
  %12 = load double, ptr %11, align 8, !tbaa !26
  store double %12, ptr %2, align 8, !tbaa !32
  br label %13

13:                                               ; preds = %5, %3, %9
  %.0 = phi i32 [ 0, %9 ], [ -9999, %3 ], [ -1, %5 ]
  call void @llvm.lifetime.end.p0(i64 8, ptr nonnull %4) #18
  ret i32 %.0
}